Certificate:
    Data:
        Version: 3 (0x2)
        Serial Number: 1 (0x1)
        Signature Algorithm: sha256WithRSAEncryption
        Issuer: CN=devcert
        Validity
            Not Before: Nov  5 11:40:54 2020 GMT
            Not After : Feb  8 11:40:54 2023 GMT
        Subject: CN=localhost
        Subject Public Key Info:
            Public Key Algorithm: rsaEncryption
                RSA Public-Key: (2048 bit)
                Modulus:
                    00:be:25:13:b7:db:04:27:98:68:af:2d:a3:df:60:
                    34:5f:fb:8d:e0:8d:39:26:e7:32:75:d8:22:29:ca:
                    a6:19:93:df:7b:f0:92:b9:53:16:af:ca:08:69:82:
                    47:21:62:6c:ec:5d:82:35:86:28:d8:ea:ea:ac:c6:
                    7b:9a:c6:94:d3:2a:2c:df:21:0a:e0:ab:81:1f:3e:
                    f1:49:e1:36:b0:a8:dd:67:69:48:a1:c1:bf:93:2e:
                    92:d0:d6:c9:92:79:4a:01:a0:fd:86:00:3a:b7:39:
                    35:38:34:08:ed:eb:cb:f0:57:d9:38:35:9b:ea:48:
                    00:95:3b:07:16:8a:42:24:0b:88:86:98:b5:19:36:
                    2d:96:ec:f1:97:17:a9:49:5a:b6:81:b6:62:6c:09:
                    62:c0:f8:38:3f:2e:43:2f:ec:ba:91:f5:c7:73:6d:
                    28:1c:68:4e:73:5b:dc:6a:1a:05:ac:10:7c:4b:b3:
                    95:8d:7b:77:90:3d:f2:88:bb:3a:eb:ba:fd:df:e6:
                    a0:0f:49:d8:39:81:8f:27:17:2a:40:b0:e6:98:42:
                    99:32:6b:48:26:dd:1c:f8:d0:6d:61:94:dc:e0:c3:
                    bc:94:01:4b:2d:22:b9:67:22:d5:64:7b:7f:f9:a4:
                    e0:cd:1c:c2:f1:e0:8f:49:a5:eb:86:47:07:d9:d9:
                    64:d7
                Exponent: 65537 (0x10001)
        X509v3 extensions:
            X509v3 Basic Constraints: critical
                CA:FALSE
            X509v3 Subject Key Identifier: 
                51:5D:C3:9B:30:10:90:71:E0:27:C3:DA:92:7E:DF:F9:B8:91:CC:40
            X509v3 Authority Key Identifier: 
                keyid:5B:52:DF:B9:07:57:37:96:B1:87:FB:47:01:CB:76:43:85:45:0D:C1
                DirName:/CN=devcert
                serial:29:02:5E:67:8B:95:D2:E4:47:8E:E5:9E:4F:F1:A9:B6:64:30:74:43

            X509v3 Key Usage: critical
                Digital Signature, Key Encipherment
            X509v3 Extended Key Usage: 
                TLS Web Server Authentication
            X509v3 Subject Alternative Name: 
                DNS:localhost, DNS:*.localhost
    Signature Algorithm: sha256WithRSAEncryption
         54:fe:29:a6:05:95:0e:67:33:ab:8a:1d:c5:1d:8d:25:64:9d:
         3f:8f:42:f3:d2:35:67:8c:4b:e1:3b:dc:2a:64:7d:cd:50:cb:
         e4:80:e1:03:d0:c0:95:de:ca:5c:11:48:df:e7:49:4c:3f:dc:
         7b:55:19:98:36:11:ed:fe:4e:26:23:45:05:ae:3c:db:57:66:
         c5:9f:af:04:f3:94:e1:09:19:b3:ef:1a:6f:9d:96:14:87:dd:
         2a:0a:32:47:f2:b0:da:76:48:59:16:86:cd:15:cb:c3:15:5f:
         e2:f7:53:ad:5e:23:ca:fb:b5:25:66:d3:16:58:f2:6c:78:22:
         c1:1c:59:26:73:d3:f6:e6:a8:fc:3c:e9:4f:79:79:ad:c4:d9:
         40:64:19:ae:ab:42:b8:3e:6b:09:d8:1f:ee:04:3c:7c:92:e9:
         49:82:10:15:7d:7e:1a:3a:ba:79:8f:98:79:f8:7d:7c:13:ac:
         9c:ae:83:b8:c3:98:1a:6c:d8:c7:6e:e1:e6:b2:75:23:84:cb:
         62:a2:25:b9:ed:48:fa:51:a6:c5:15:22:4a:47:e8:17:f8:cf:
         ac:3d:ab:53:25:34:33:ad:d3:89:16:9a:92:61:26:ff:95:e8:
         51:ec:c9:45:71:79:02:48:40:c1:aa:95:47:5b:a5:fa:6f:b3:
         1c:f0:ec:78
-----BEGIN CERTIFICATE-----
MIIDaTCCAlGgAwIBAgIBATANBgkqhkiG9w0BAQsFADASMRAwDgYDVQQDDAdkZXZj
ZXJ0MB4XDTIwMTEwNTExNDA1NFoXDTIzMDIwODExNDA1NFowFDESMBAGA1UEAwwJ
bG9jYWxob3N0MIIBIjANBgkqhkiG9w0BAQEFAAOCAQ8AMIIBCgKCAQEAviUTt9sE
J5hory2j32A0X/uN4I05JucyddgiKcqmGZPfe/CSuVMWr8oIaYJHIWJs7F2CNYYo
2OrqrMZ7msaU0yos3yEK4KuBHz7xSeE2sKjdZ2lIocG/ky6S0NbJknlKAaD9hgA6
tzk1ODQI7evL8FfZODWb6kgAlTsHFopCJAuIhpi1GTYtluzxlxepSVq2gbZibAli
wPg4Py5DL+y6kfXHc20oHGhOc1vcahoFrBB8S7OVjXt3kD3yiLs667r93+agD0nY
OYGPJxcqQLDmmEKZMmtIJt0c+NBtYZTc4MO8lAFLLSK5ZyLVZHt/+aTgzRzC8eCP
SaXrhkcH2dlk1wIDAQABo4HHMIHEMAwGA1UdEwEB/wQCMAAwHQYDVR0OBBYEFFFd
w5swEJBx4CfD2pJ+3/m4kcxAME0GA1UdIwRGMESAFFtS37kHVzeWsYf7RwHLdkOF
RQ3BoRakFDASMRAwDgYDVQQDDAdkZXZjZXJ0ghQpAl5ni5XS5EeO5Z5P8am2ZDB0
QzAOBgNVHQ8BAf8EBAMCBaAwEwYDVR0lBAwwCgYIKwYBBQUHAwEwIQYDVR0RBBow
GIIJbG9jYWxob3N0ggsqLmxvY2FsaG9zdDANBgkqhkiG9w0BAQsFAAOCAQEAVP4p
pgWVDmczq4odxR2NJWSdP49C89I1Z4xL4TvcKmR9zVDL5IDhA9DAld7KXBFI3+dJ
TD/ce1UZmDYR7f5OJiNFBa4821dmxZ+vBPOU4QkZs+8ab52WFIfdKgoyR/Kw2nZI
WRaGzRXLwxVf4vdTrV4jyvu1JWbTFljybHgiwRxZJnPT9uao/DzpT3l5rcTZQGQZ
rqtCuD5rCdgf7gQ8fJLpSYIQFX1+Gjq6eY+Yefh9fBOsnK6DuMOYGmzYx27h5rJ1
I4TLYqIlue1I+lGmxRUiSkfoF/jPrD2rUyU0M63TiRaakmEm/5XoUezJRXF5AkhA
waqVR1ul+m+zHPDseA==
-----END CERTIFICATE-----
